; Function Attrs: nounwind uwtable
define internal i32 @ml_kem_match(ptr noundef %0, ptr noundef %1, i32 noundef %2) #0 {
  %4 = tail call i32 @ossl_prov_is_running() #7
  %.not = icmp eq i32 %4, 0
  br i1 %.not, label %9, label %5

5:                                                ; preds = %3
  %6 = and i32 %2, 3
  %.not5 = icmp eq i32 %6, 0
  br i1 %.not5, label %9, label %7

7:                                                ; preds = %5
  %8 = tail call i32 @ossl_ml_kem_pubkey_cmp(ptr noundef %0, ptr noundef %1) #7
  br label %9

9:                                                ; preds = %5, %3, %7
  %.0 = phi i32 [ %8, %7 ], [ 0, %3 ], [ 1, %5 ]
  ret i32 %.0
}